target datalayout = "e-m:e-p270:32:32-p271:32:32-p272:64:64-i64:64-i128:128-f80:128-n8:16:32:64-S128"
target triple = "x86_64-pc-linux-gnu"

%struct.slurmctld_resv = type { i16, ptr, i32, ptr, ptr, i32, ptr, ptr, i32, ptr, i32, ptr, i32, i64, i64, ptr, i64, ptr, ptr, i32, i32, ptr, ptr, i32, ptr, ptr, i32, ptr, ptr, ptr, i32, i32, i64, i64, i64, i64, ptr, ptr, ptr, i32, ptr }
%struct.part_record = type { i32, ptr, ptr, ptr, ptr, ptr, ptr, i32, ptr, ptr, ptr, ptr, ptr, i32, i64, i32, ptr, ptr, ptr, ptr, ptr, i32, i32, ptr, i32, i32, i64, i32, i32, i16, i32, i32, i32, i32, ptr, ptr, ptr, ptr, ptr, double, i16, i16, i16, i16, ptr, ptr, i16, i16, i32, i16, i32, i32, i32, i32, i16, ptr, ptr, ptr }

@last_resv_update = dso_local global i64 0, align 8
@resv_list = dso_local global ptr null, align 8

; Function Attrs: nounwind uwtable
define internal void @_set_boot_time(ptr noundef %0) #0 {
  %2 = alloca ptr, align 8
  store ptr %0, ptr %2, align 8
  %3 = load ptr, ptr %2, align 8
  %4 = getelementptr inbounds nuw %struct.slurmctld_resv, ptr %3, i32 0, i32 5
  store i32 0, ptr %4, align 8
  %5 = load ptr, ptr %2, align 8
  %6 = getelementptr inbounds nuw %struct.slurmctld_resv, ptr %5, i32 0, i32 25
  %7 = load ptr, ptr %6, align 8
  %8 = icmp ne ptr %7, null
  br i1 %8, label %10, label %9

9:                                                ; preds = %1
  br label %20

10:                                               ; preds = %1
  %11 = load ptr, ptr %2, align 8
  %12 = getelementptr inbounds nuw %struct.slurmctld_resv, ptr %11, i32 0, i32 25
  %13 = load ptr, ptr %12, align 8
  %14 = call i32 @node_features_g_overlap(ptr noundef %13)
  %15 = icmp ne i32 %14, 0
  br i1 %15, label %16, label %20

16:                                               ; preds = %10
  %17 = call i32 @node_features_g_boot_time()
  %18 = load ptr, ptr %2, align 8
  %19 = getelementptr inbounds nuw %struct.slurmctld_resv, ptr %18, i32 0, i32 5
  store i32 %17, ptr %19, align 8
  br label %20

20:                                               ; preds = %9, %16, %10
  ret void
}

; Function Attrs: nounwind uwtable
define dso_local void @update_part_nodes_in_resv(ptr noundef %0) #0 {
  %2 = alloca ptr, align 8
  %3 = alloca ptr, align 8
  %4 = alloca ptr, align 8
  %5 = alloca %struct.slurmctld_resv, align 8
  store ptr %0, ptr %2, align 8
  call void @llvm.lifetime.start.p0(i64 8, ptr %3) #10
  store ptr null, ptr %3, align 8
  call void @llvm.lifetime.start.p0(i64 8, ptr %4) #10
  store ptr null, ptr %4, align 8
  %6 = load ptr, ptr @resv_list, align 8
  %7 = call ptr @list_iterator_create(ptr noundef %6)
  store ptr %7, ptr %3, align 8
  br label %8

8:                                                ; preds = %90, %1
  %9 = load ptr, ptr %3, align 8
  %10 = call ptr @list_next(ptr noundef %9)
  store ptr %10, ptr %4, align 8
  %11 = icmp ne ptr %10, null
  br i1 %11, label %12, label %91

12:                                               ; preds = %8
  %13 = load ptr, ptr %4, align 8
  %14 = getelementptr inbounds nuw %struct.slurmctld_resv, ptr %13, i32 0, i32 16
  %15 = load i64, ptr %14, align 8
  %16 = and i64 %15, 4096
  %17 = icmp ne i64 %16, 0
  br i1 %17, label %18, label %90

18:                                               ; preds = %12
  %19 = load ptr, ptr %4, align 8
  %20 = getelementptr inbounds nuw %struct.slurmctld_resv, ptr %19, i32 0, i32 28
  %21 = load ptr, ptr %20, align 8
  %22 = icmp ne ptr %21, null
  br i1 %22, label %23, label %90

23:                                               ; preds = %18
  %24 = load ptr, ptr %4, align 8
  %25 = getelementptr inbounds nuw %struct.slurmctld_resv, ptr %24, i32 0, i32 28
  %26 = load ptr, ptr %25, align 8
  %27 = load ptr, ptr %2, align 8
  %28 = getelementptr inbounds nuw %struct.part_record, ptr %27, i32 0, i32 34
  %29 = load ptr, ptr %28, align 8
  %30 = call i32 @xstrcmp(ptr noundef %26, ptr noundef %29)
  %31 = icmp eq i32 %30, 0
  br i1 %31, label %32, label %90

32:                                               ; preds = %23
  call void @llvm.lifetime.start.p0(i64 312, ptr %5) #10
  call void @llvm.memset.p0.i64(ptr align 8 %5, i8 0, i64 312, i1 false)
  %33 = load ptr, ptr %4, align 8
  %34 = getelementptr inbounds nuw %struct.slurmctld_resv, ptr %33, i32 0, i32 4
  %35 = load ptr, ptr %34, align 8
  %36 = getelementptr inbounds nuw %struct.slurmctld_resv, ptr %5, i32 0, i32 4
  store ptr %35, ptr %36, align 8
  %37 = load ptr, ptr %4, align 8
  %38 = getelementptr inbounds nuw %struct.slurmctld_resv, ptr %37, i32 0, i32 16
  %39 = load i64, ptr %38, align 8
  %40 = getelementptr inbounds nuw %struct.slurmctld_resv, ptr %5, i32 0, i32 16
  store i64 %39, ptr %40, align 8
  %41 = load ptr, ptr %4, align 8
  %42 = getelementptr inbounds nuw %struct.slurmctld_resv, ptr %41, i32 0, i32 27
  %43 = load ptr, ptr %42, align 8
  %44 = getelementptr inbounds nuw %struct.slurmctld_resv, ptr %5, i32 0, i32 27
  store ptr %43, ptr %44, align 8
  %45 = load ptr, ptr %4, align 8
  %46 = getelementptr inbounds nuw %struct.slurmctld_resv, ptr %45, i32 0, i32 27
  store ptr null, ptr %46, align 8
  br label %47

47:                                               ; preds = %32
  %48 = load ptr, ptr %4, align 8
  %49 = getelementptr inbounds nuw %struct.slurmctld_resv, ptr %48, i32 0, i32 25
  %50 = load ptr, ptr %49, align 8
  %51 = icmp ne ptr %50, null
  br i1 %51, label %52, label %55

52:                                               ; preds = %47
  %53 = load ptr, ptr %4, align 8
  %54 = getelementptr inbounds nuw %struct.slurmctld_resv, ptr %53, i32 0, i32 25
  call void @slurm_bit_free(ptr noundef %54)
  br label %55

55:                                               ; preds = %52, %47
  %56 = load ptr, ptr %4, align 8
  %57 = getelementptr inbounds nuw %struct.slurmctld_resv, ptr %56, i32 0, i32 25
  store ptr null, ptr %57, align 8
  br label %58

58:                                               ; preds = %55
  br label %59

59:                                               ; preds = %58
  %60 = load ptr, ptr %2, align 8
  %61 = getelementptr inbounds nuw %struct.part_record, ptr %60, i32 0, i32 35
  %62 = load ptr, ptr %61, align 8
  %63 = call ptr @bit_copy(ptr noundef %62)
  %64 = load ptr, ptr %4, align 8
  %65 = getelementptr inbounds nuw %struct.slurmctld_resv, ptr %64, i32 0, i32 25
  store ptr %63, ptr %65, align 8
  %66 = load ptr, ptr %4, align 8
  %67 = getelementptr inbounds nuw %struct.slurmctld_resv, ptr %66, i32 0, i32 25
  %68 = load ptr, ptr %67, align 8
  %69 = call i32 @bit_set_count(ptr noundef %68)
  %70 = load ptr, ptr %4, align 8
  %71 = getelementptr inbounds nuw %struct.slurmctld_resv, ptr %70, i32 0, i32 26
  store i32 %69, ptr %71, align 8
  %72 = load ptr, ptr %2, align 8
  %73 = getelementptr inbounds nuw %struct.part_record, ptr %72, i32 0, i32 36
  %74 = load ptr, ptr %73, align 8
  %75 = call ptr @xstrdup(ptr noundef %74)
  %76 = load ptr, ptr %4, align 8
  %77 = getelementptr inbounds nuw %struct.slurmctld_resv, ptr %76, i32 0, i32 27
  store ptr %75, ptr %77, align 8
  %78 = load ptr, ptr %4, align 8
  %79 = getelementptr inbounds nuw %struct.slurmctld_resv, ptr %78, i32 0, i32 37
  %80 = load ptr, ptr %79, align 8
  %81 = getelementptr inbounds nuw %struct.slurmctld_resv, ptr %5, i32 0, i32 37
  store ptr %80, ptr %81, align 8
  %82 = load ptr, ptr %4, align 8
  %83 = getelementptr inbounds nuw %struct.slurmctld_resv, ptr %82, i32 0, i32 37
  store ptr null, ptr %83, align 8
  %84 = load ptr, ptr %4, align 8
  call void @_set_tres_cnt(ptr noundef %84, ptr noundef %5)
  %85 = getelementptr inbounds nuw %struct.slurmctld_resv, ptr %5, i32 0, i32 4
  store ptr null, ptr %85, align 8
  %86 = getelementptr inbounds nuw %struct.slurmctld_resv, ptr %5, i32 0, i32 37
  call void @slurm_xfree(ptr noundef %86)
  %87 = getelementptr inbounds nuw %struct.slurmctld_resv, ptr %5, i32 0, i32 27
  call void @slurm_xfree(ptr noundef %87)
  %88 = call i64 @time(ptr noundef null) #10
  store i64 %88, ptr @last_resv_update, align 8
  %89 = load ptr, ptr %4, align 8
  call void @_set_boot_time(ptr noundef %89)
  call void @llvm.lifetime.end.p0(i64 312, ptr %5) #10
  br label %90

90:                                               ; preds = %59, %23, %18, %12
  br label %8, !llvm.loop !77

91:                                               ; preds = %8
  %92 = load ptr, ptr %3, align 8
  call void @list_iterator_destroy(ptr noundef %92)
  call void @llvm.lifetime.end.p0(i64 8, ptr %4) #10
  call void @llvm.lifetime.end.p0(i64 8, ptr %3) #10
  ret void
}