; Function Attrs: nounwind uwtable
define dso_local void @update_part_nodes_in_resv(ptr noundef readonly captures(none) %0) local_unnamed_addr #0 {
  %2 = alloca %struct.slurmctld_resv, align 8
  %3 = load ptr, ptr @resv_list, align 8
  %4 = tail call ptr @list_iterator_create(ptr noundef %3) #19
  %5 = tail call ptr @list_next(ptr noundef %4) #19
  %.not27 = icmp eq ptr %5, null
  br i1 %.not27, label %._crit_edge, label %.lr.ph

.lr.ph:                                           ; preds = %1
  %6 = getelementptr inbounds nuw i8, ptr %0, i64 232
  %7 = getelementptr inbounds nuw i8, ptr %2, i64 32
  %8 = getelementptr inbounds nuw i8, ptr %2, i64 128
  %9 = getelementptr inbounds nuw i8, ptr %2, i64 208
  %10 = getelementptr inbounds nuw i8, ptr %0, i64 240
  %11 = getelementptr inbounds nuw i8, ptr %0, i64 248
  %12 = getelementptr inbounds nuw i8, ptr %2, i64 280
  br label %13

13:                                               ; preds = %.lr.ph, %50
  %14 = phi ptr [ %5, %.lr.ph ], [ %51, %50 ]
  %15 = getelementptr inbounds nuw i8, ptr %14, i64 128
  %16 = load i64, ptr %15, align 8
  %17 = and i64 %16, 4096
  %.not24 = icmp eq i64 %17, 0
  br i1 %.not24, label %50, label %18

18:                                               ; preds = %13
  %19 = getelementptr inbounds nuw i8, ptr %14, i64 216
  %20 = load ptr, ptr %19, align 8
  %.not25 = icmp eq ptr %20, null
  br i1 %.not25, label %50, label %21

21:                                               ; preds = %18
  %22 = load ptr, ptr %6, align 8
  %23 = call i32 @xstrcmp(ptr noundef nonnull %20, ptr noundef %22) #19
  %24 = icmp eq i32 %23, 0
  br i1 %24, label %25, label %50

25:                                               ; preds = %21
  call void @llvm.lifetime.start.p0(i64 312, ptr nonnull %2) #19
  call void @llvm.memset.p0.i64(ptr noundef nonnull align 8 dereferenceable(312) %2, i8 0, i64 312, i1 false)
  %26 = getelementptr inbounds nuw i8, ptr %14, i64 32
  %27 = load ptr, ptr %26, align 8
  store ptr %27, ptr %7, align 8
  %28 = load i64, ptr %15, align 8
  store i64 %28, ptr %8, align 8
  %29 = getelementptr inbounds nuw i8, ptr %14, i64 208
  %30 = load ptr, ptr %29, align 8
  store ptr %30, ptr %9, align 8
  store ptr null, ptr %29, align 8
  %31 = getelementptr inbounds nuw i8, ptr %14, i64 192
  %32 = load ptr, ptr %31, align 8
  %.not26 = icmp eq ptr %32, null
  br i1 %.not26, label %34, label %33

33:                                               ; preds = %25
  call void @slurm_bit_free(ptr noundef nonnull %31) #19
  br label %34

34:                                               ; preds = %33, %25
  store ptr null, ptr %31, align 8
  %35 = load ptr, ptr %10, align 8
  %36 = call ptr @bit_copy(ptr noundef %35) #19
  store ptr %36, ptr %31, align 8
  %37 = call i32 @bit_set_count(ptr noundef %36) #19
  %38 = getelementptr inbounds nuw i8, ptr %14, i64 200
  store i32 %37, ptr %38, align 8
  %39 = load ptr, ptr %11, align 8
  %40 = call ptr @xstrdup(ptr noundef %39) #19
  store ptr %40, ptr %29, align 8
  %41 = getelementptr inbounds nuw i8, ptr %14, i64 280
  %42 = load ptr, ptr %41, align 8
  store ptr %42, ptr %12, align 8
  store ptr null, ptr %41, align 8
  call fastcc void @_set_tres_cnt(ptr noundef nonnull %14, ptr noundef nonnull %2)
  store ptr null, ptr %7, align 8
  call void @slurm_xfree(ptr noundef nonnull %12) #19
  call void @slurm_xfree(ptr noundef nonnull %9) #19
  %43 = call i64 @time(ptr noundef null) #19
  store i64 %43, ptr @last_resv_update, align 8
  %44 = getelementptr inbounds nuw i8, ptr %14, i64 40
  store i32 0, ptr %44, align 8
  %45 = load ptr, ptr %31, align 8
  %.not.i = icmp eq ptr %45, null
  br i1 %.not.i, label %_set_boot_time.exit, label %46

46:                                               ; preds = %34
  %47 = call i32 @node_features_g_overlap(ptr noundef nonnull %45) #19
  %.not4.i = icmp eq i32 %47, 0
  br i1 %.not4.i, label %_set_boot_time.exit, label %48

48:                                               ; preds = %46
  %49 = call i32 @node_features_g_boot_time() #19
  store i32 %49, ptr %44, align 8
  br label %_set_boot_time.exit

_set_boot_time.exit:                              ; preds = %34, %46, %48
  call void @llvm.lifetime.end.p0(i64 312, ptr nonnull %2) #19
  br label %50

50:                                               ; preds = %_set_boot_time.exit, %21, %18, %13
  %51 = call ptr @list_next(ptr noundef %4) #19
  %.not = icmp eq ptr %51, null
  br i1 %.not, label %._crit_edge, label %13, !llvm.loop !83

._crit_edge:                                      ; preds = %50, %1
  call void @list_iterator_destroy(ptr noundef %4) #19
  ret void
}